(lp1
(dp2
Vdomain
p3
V.facebook.com
p4
sVname
p5
Vdatr
p6
sVvalue
p7
Vm9NzVscWHZXUXOe-K3Z862Fe
p8
sVexpiry
p9
I1513503391
sVpath
p10
V/
sVhttpOnly
p11
I01
sVsecure
p12
I00
sa(dp13
Vdomain
p14
V.facebook.com
p15
sVname
p16
Vc_user
p17
sVvalue
p18
V530247196
p19
sVexpiry
p20
I1458207391
sVpath
p21
V/
sVhttpOnly
p22
I00
sVsecure
p23
I01
sa(dp24
Vdomain
p25
V.facebook.com
p26
sVname
p27
Vfr
p28
sVvalue
p29
V0GNBvT0kQwmBpSwwH.AWUA8ViEMi1byyQ8vlhwPWENtqo.BWc9Of.uj.AAA.0.AWWEDgaQ
p30
sVexpiry
p31
I1458207391
sVpath
p32
V/
sVhttpOnly
p33
I01
sVsecure
p34
I00
sa(dp35
Vdomain
p36
V.facebook.com
p37
sVname
p38
Vxs
p39
sVvalue
p40
V106%3AYHGVQEo021UyLQ%3A2%3A1450431390%3A574
p41
sVexpiry
p42
I1458207391
sVpath
p43
V/
sVhttpOnly
p44
I01
sVsecure
p45
I01
sa(dp46
Vdomain
p47
V.facebook.com
p48
sVname
p49
Vcsm
p50
sVvalue
p51
V2
sVexpiry
p52
I1458207391
sVpath
p53
V/
sVhttpOnly
p54
I00
sVsecure
p55
I00
sa(dp56
Vdomain
p57
V.facebook.com
p58
sVname
p59
Vs
sVvalue
p60
VAa5RqED_yI4gqnHQ.BWc9Of
p61
sVexpiry
p62
I1458207391
sVpath
p63
V/
sVhttpOnly
p64
I01
sVsecure
p65
I01
sa(dp66
Vdomain
p67
V.facebook.com
p68
sVname
p69
Vpl
p70
sVvalue
p71
Vn
sVexpiry
p72
I1458207390
sVpath
p73
V/
sVhttpOnly
p74
I01
sVsecure
p75
I01
sa(dp76
Vdomain
p77
V.facebook.com
p78
sVname
p79
Vlu
p80
sVvalue
p81
Vgh4h0Kvv-WUJC63pW19CaWOg
p82
sVexpiry
p83
I1513503391
sVpath
p84
V/
sVhttpOnly
p85
I01
sVsecure
p86
I01
sa(dp87
Vdomain
p88
V.facebook.com
p89
sVname
p90
Vp
sVvalue
p91
V-2
p92
sVexpiry
p93
NsVpath
p94
V/
sVhttpOnly
p95
I00
sVsecure
p96
I00
sa(dp97
Vdomain
p98
V.facebook.com
p99
sVname
p100
Vpresence
p101
sVvalue
p102
VEDvF3EtimeF1450431392EuserFA2530247196A2EstateFDutF0EatF1450431392655Et2F_5b_5dElm2FnullEuct2F1450430791BEtrFnullEtwF3785752920Esb2F0CEchFDp_5f530247196F0CC
p103
sVexpiry
p104
NsVpath
p105
V/
sVhttpOnly
p106
I00
sVsecure
p107
I01
sa(dp108
Vdomain
p109
V.facebook.com
p110
sVname
p111
Vwd
p112
sVvalue
p113
V960x440
p114
sVexpiry
p115
NsVpath
p116
V/
sVhttpOnly
p117
I00
sVsecure
p118
I00
sa.